target datalayout = "e-m:e-p270:32:32-p271:32:32-p272:64:64-i64:64-i128:128-f80:128-n8:16:32:64-S128"
target triple = "x86_64-pc-linux-gnu"

%struct.Vec_Int_t_ = type { i32, i32, ptr }
%struct.Gia_Man_t_ = type { ptr, ptr, i32, i32, i32, i32, ptr, ptr, i32, i32, i32, ptr, ptr, %struct.Vec_Int_t_, %struct.Vec_Int_t_, i32, i32, i32, %struct.Vec_Int_t_, ptr, ptr, ptr, i32, i32, i32, i32, ptr, ptr, ptr, ptr, ptr, i32, i32, ptr, i32, ptr, ptr, ptr, ptr, ptr, ptr, ptr, ptr, ptr, ptr, ptr, ptr, ptr, ptr, ptr, ptr, ptr, ptr, %struct.Vec_Int_t_, %struct.Vec_Int_t_, ptr, ptr, ptr, ptr, ptr, ptr, ptr, ptr, ptr, ptr, ptr, ptr, ptr, ptr, ptr, ptr, ptr, ptr, ptr, ptr, ptr, i32, float, float, ptr, ptr, i32, ptr, ptr, ptr, ptr, ptr, ptr, ptr, ptr, ptr, ptr, ptr, ptr, ptr, ptr, ptr, i64, i64, ptr, ptr, i32, i32, i32, i32, i32, i32, i32, i32, i32, i32, i32, i32, ptr, ptr, ptr, ptr, ptr, ptr, ptr, ptr, i32, i32, i32, ptr, i32, i32, ptr, ptr, ptr, ptr, ptr, ptr, i32, i32, ptr, %struct.Vec_Int_t_, %struct.Vec_Int_t_, %struct.Vec_Int_t_, ptr, ptr, ptr }
%struct.Ga2_Man_t_ = type { ptr, ptr, ptr, ptr, ptr, ptr, ptr, i32, i32, i32, i32, i32, ptr, ptr, ptr, i32, i32, i32, i32, ptr, i32, i32, i32, i32, ptr, ptr, ptr, ptr, i64, i64, i64, i64, i64, i64 }
%struct.Abs_Par_t_ = type { i32, i32, i32, i32, i32, i32, i32, i32, i32, i32, i32, i32, i32, i32, i32, i32, i32, i32, i32, i32, i32, i32, i32, i32, i32, ptr, i32, i32, i32, i32, i32, i32 }

@Ga2_GlaGetFileName.pFileNameDef = internal global ptr @.str.46, align 8
@.str.47 = private unnamed_addr constant [9 x i8] c"_abs.aig\00", align 1
@.str.48 = private unnamed_addr constant [9 x i8] c"_gla.aig\00", align 1
@.str.49 = private unnamed_addr constant [54 x i8] c"Dumping miter with abstraction map into file \22%s\22...\0A\00", align 1
@.str.50 = private unnamed_addr constant [44 x i8] c"Dumping abstracted model into file \22%s\22...\0A\00", align 1

; Function Attrs: nounwind uwtable
define internal void @Vec_IntFreeP(ptr noundef %0) #0 {
  %2 = alloca ptr, align 8
  store ptr %0, ptr %2, align 8
  %3 = load ptr, ptr %2, align 8
  %4 = load ptr, ptr %3, align 8
  %5 = icmp eq ptr %4, null
  br i1 %5, label %6, label %7

6:                                                ; preds = %1
  br label %32

7:                                                ; preds = %1
  %8 = load ptr, ptr %2, align 8
  %9 = load ptr, ptr %8, align 8
  %10 = getelementptr inbounds %struct.Vec_Int_t_, ptr %9, i32 0, i32 2
  %11 = load ptr, ptr %10, align 8
  %12 = icmp ne ptr %11, null
  br i1 %12, label %13, label %21

13:                                               ; preds = %7
  %14 = load ptr, ptr %2, align 8
  %15 = load ptr, ptr %14, align 8
  %16 = getelementptr inbounds %struct.Vec_Int_t_, ptr %15, i32 0, i32 2
  %17 = load ptr, ptr %16, align 8
  call void @free(ptr noundef %17) #12
  %18 = load ptr, ptr %2, align 8
  %19 = load ptr, ptr %18, align 8
  %20 = getelementptr inbounds %struct.Vec_Int_t_, ptr %19, i32 0, i32 2
  store ptr null, ptr %20, align 8
  br label %22

21:                                               ; preds = %7
  br label %22

22:                                               ; preds = %21, %13
  %23 = load ptr, ptr %2, align 8
  %24 = load ptr, ptr %23, align 8
  %25 = icmp ne ptr %24, null
  br i1 %25, label %26, label %30

26:                                               ; preds = %22
  %27 = load ptr, ptr %2, align 8
  %28 = load ptr, ptr %27, align 8
  call void @free(ptr noundef %28) #12
  %29 = load ptr, ptr %2, align 8
  store ptr null, ptr %29, align 8
  br label %31

30:                                               ; preds = %22
  br label %31

31:                                               ; preds = %30, %26
  br label %32

32:                                               ; preds = %31, %6
  ret void
}

; Function Attrs: nounwind uwtable
define ptr @Ga2_GlaGetFileName(ptr noundef %0, i32 noundef %1) #0 {
  %3 = alloca ptr, align 8
  %4 = alloca ptr, align 8
  %5 = alloca i32, align 4
  store ptr %0, ptr %4, align 8
  store i32 %1, ptr %5, align 4
  %6 = load ptr, ptr %4, align 8
  %7 = getelementptr inbounds %struct.Ga2_Man_t_, ptr %6, i32 0, i32 1
  %8 = load ptr, ptr %7, align 8
  %9 = getelementptr inbounds %struct.Abs_Par_t_, ptr %8, i32 0, i32 25
  %10 = load ptr, ptr %9, align 8
  %11 = icmp ne ptr %10, null
  br i1 %11, label %12, label %18

12:                                               ; preds = %2
  %13 = load ptr, ptr %4, align 8
  %14 = getelementptr inbounds %struct.Ga2_Man_t_, ptr %13, i32 0, i32 1
  %15 = load ptr, ptr %14, align 8
  %16 = getelementptr inbounds %struct.Abs_Par_t_, ptr %15, i32 0, i32 25
  %17 = load ptr, ptr %16, align 8
  store ptr %17, ptr %3, align 8
  br label %44

18:                                               ; preds = %2
  %19 = load ptr, ptr %4, align 8
  %20 = getelementptr inbounds %struct.Ga2_Man_t_, ptr %19, i32 0, i32 0
  %21 = load ptr, ptr %20, align 8
  %22 = getelementptr inbounds %struct.Gia_Man_t_, ptr %21, i32 0, i32 1
  %23 = load ptr, ptr %22, align 8
  %24 = icmp ne ptr %23, null
  br i1 %24, label %25, label %42

25:                                               ; preds = %18
  %26 = load i32, ptr %5, align 4
  %27 = icmp ne i32 %26, 0
  br i1 %27, label %28, label %35

28:                                               ; preds = %25
  %29 = load ptr, ptr %4, align 8
  %30 = getelementptr inbounds %struct.Ga2_Man_t_, ptr %29, i32 0, i32 0
  %31 = load ptr, ptr %30, align 8
  %32 = getelementptr inbounds %struct.Gia_Man_t_, ptr %31, i32 0, i32 1
  %33 = load ptr, ptr %32, align 8
  %34 = call ptr @Extra_FileNameGenericAppend(ptr noundef %33, ptr noundef @.str.47)
  store ptr %34, ptr %3, align 8
  br label %44

35:                                               ; preds = %25
  %36 = load ptr, ptr %4, align 8
  %37 = getelementptr inbounds %struct.Ga2_Man_t_, ptr %36, i32 0, i32 0
  %38 = load ptr, ptr %37, align 8
  %39 = getelementptr inbounds %struct.Gia_Man_t_, ptr %38, i32 0, i32 1
  %40 = load ptr, ptr %39, align 8
  %41 = call ptr @Extra_FileNameGenericAppend(ptr noundef %40, ptr noundef @.str.48)
  store ptr %41, ptr %3, align 8
  br label %44

42:                                               ; preds = %18
  %43 = load ptr, ptr @Ga2_GlaGetFileName.pFileNameDef, align 8
  store ptr %43, ptr %3, align 8
  br label %44

44:                                               ; preds = %42, %35, %28, %12
  %45 = load ptr, ptr %3, align 8
  ret ptr %45
}

; Function Attrs: nounwind uwtable
define void @Ga2_GlaDumpAbsracted(ptr noundef %0, i32 noundef %1) #0 {
  %3 = alloca ptr, align 8
  %4 = alloca i32, align 4
  %5 = alloca ptr, align 8
  %6 = alloca ptr, align 8
  %7 = alloca ptr, align 8
  store ptr %0, ptr %3, align 8
  store i32 %1, ptr %4, align 4
  %8 = load ptr, ptr %3, align 8
  %9 = getelementptr inbounds %struct.Ga2_Man_t_, ptr %8, i32 0, i32 1
  %10 = load ptr, ptr %9, align 8
  %11 = getelementptr inbounds %struct.Abs_Par_t_, ptr %10, i32 0, i32 22
  %12 = load i32, ptr %11, align 8
  %13 = icmp ne i32 %12, 0
  br i1 %13, label %14, label %36

14:                                               ; preds = %2
  %15 = load ptr, ptr %3, align 8
  %16 = call ptr @Ga2_GlaGetFileName(ptr noundef %15, i32 noundef 0)
  store ptr %16, ptr %5, align 8
  %17 = load i32, ptr %4, align 4
  %18 = icmp ne i32 %17, 0
  br i1 %18, label %19, label %21

19:                                               ; preds = %14
  %20 = load ptr, ptr %5, align 8
  call void (i32, ptr, ...) @Abc_Print(i32 noundef 1, ptr noundef @.str.49, ptr noundef %20)
  br label %21

21:                                               ; preds = %19, %14
  %22 = load ptr, ptr %3, align 8
  %23 = getelementptr inbounds %struct.Ga2_Man_t_, ptr %22, i32 0, i32 0
  %24 = load ptr, ptr %23, align 8
  %25 = getelementptr inbounds %struct.Gia_Man_t_, ptr %24, i32 0, i32 58
  call void @Vec_IntFreeP(ptr noundef %25)
  %26 = load ptr, ptr %3, align 8
  %27 = call ptr @Ga2_ManAbsTranslate(ptr noundef %26)
  %28 = load ptr, ptr %3, align 8
  %29 = getelementptr inbounds %struct.Ga2_Man_t_, ptr %28, i32 0, i32 0
  %30 = load ptr, ptr %29, align 8
  %31 = getelementptr inbounds %struct.Gia_Man_t_, ptr %30, i32 0, i32 58
  store ptr %27, ptr %31, align 8
  %32 = load ptr, ptr %3, align 8
  %33 = getelementptr inbounds %struct.Ga2_Man_t_, ptr %32, i32 0, i32 0
  %34 = load ptr, ptr %33, align 8
  %35 = load ptr, ptr %5, align 8
  call void @Gia_AigerWrite(ptr noundef %34, ptr noundef %35, i32 noundef 0, i32 noundef 0, i32 noundef 0)
  br label %66

36:                                               ; preds = %2
  %37 = load ptr, ptr %3, align 8
  %38 = getelementptr inbounds %struct.Ga2_Man_t_, ptr %37, i32 0, i32 1
  %39 = load ptr, ptr %38, align 8
  %40 = getelementptr inbounds %struct.Abs_Par_t_, ptr %39, i32 0, i32 21
  %41 = load i32, ptr %40, align 4
  %42 = icmp ne i32 %41, 0
  br i1 %42, label %43, label %64

43:                                               ; preds = %36
  %44 = load ptr, ptr %3, align 8
  %45 = call ptr @Ga2_GlaGetFileName(ptr noundef %44, i32 noundef 1)
  store ptr %45, ptr %5, align 8
  %46 = load i32, ptr %4, align 4
  %47 = icmp ne i32 %46, 0
  br i1 %47, label %48, label %50

48:                                               ; preds = %43
  %49 = load ptr, ptr %5, align 8
  call void (i32, ptr, ...) @Abc_Print(i32 noundef 1, ptr noundef @.str.50, ptr noundef %49)
  br label %50

50:                                               ; preds = %48, %43
  %51 = load ptr, ptr %3, align 8
  %52 = call ptr @Ga2_ManAbsTranslate(ptr noundef %51)
  store ptr %52, ptr %6, align 8
  %53 = load ptr, ptr %3, align 8
  %54 = getelementptr inbounds %struct.Ga2_Man_t_, ptr %53, i32 0, i32 0
  %55 = load ptr, ptr %54, align 8
  %56 = load ptr, ptr %6, align 8
  %57 = call ptr @Gia_ManDupAbsGates(ptr noundef %55, ptr noundef %56)
  store ptr %57, ptr %7, align 8
  %58 = load ptr, ptr %3, align 8
  %59 = getelementptr inbounds %struct.Ga2_Man_t_, ptr %58, i32 0, i32 0
  %60 = load ptr, ptr %59, align 8
  call void @Gia_ManCleanValue(ptr noundef %60)
  %61 = load ptr, ptr %7, align 8
  %62 = load ptr, ptr %5, align 8
  call void @Gia_AigerWrite(ptr noundef %61, ptr noundef %62, i32 noundef 0, i32 noundef 0, i32 noundef 0)
  %63 = load ptr, ptr %7, align 8
  call void @Gia_ManStop(ptr noundef %63)
  call void @Vec_IntFreeP(ptr noundef %6)
  br label %65

64:                                               ; preds = %36
  br label %65

65:                                               ; preds = %64, %50
  br label %66

66:                                               ; preds = %65, %21
  ret void
}