; Function Attrs: nounwind uwtable
define void @Ga2_GlaDumpAbsracted(ptr noundef readonly captures(none) %0, i32 noundef %1) local_unnamed_addr #4 {
  %3 = getelementptr inbounds nuw i8, ptr %0, i64 8
  %4 = load ptr, ptr %3, align 8
  %5 = getelementptr inbounds nuw i8, ptr %4, i64 88
  %6 = load i32, ptr %5, align 8
  %.not = icmp eq i32 %6, 0
  br i1 %.not, label %32, label %7

7:                                                ; preds = %2
  %8 = getelementptr inbounds nuw i8, ptr %4, i64 104
  %9 = load ptr, ptr %8, align 8
  %.not.i = icmp eq ptr %9, null
  br i1 %.not.i, label %10, label %Ga2_GlaGetFileName.exit

10:                                               ; preds = %7
  %11 = load ptr, ptr %0, align 8
  %12 = getelementptr inbounds nuw i8, ptr %11, i64 8
  %13 = load ptr, ptr %12, align 8
  %.not8.i = icmp eq ptr %13, null
  br i1 %.not8.i, label %Ga2_GlaGetFileName.exit, label %.sink.split.i

.sink.split.i:                                    ; preds = %10
  %14 = tail call ptr @Extra_FileNameGenericAppend(ptr noundef nonnull %13, ptr noundef nonnull @.str.48) #28
  br label %Ga2_GlaGetFileName.exit

Ga2_GlaGetFileName.exit:                          ; preds = %7, %10, %.sink.split.i
  %.0.i = phi ptr [ %9, %7 ], [ @.str.46, %10 ], [ %14, %.sink.split.i ]
  %.not20 = icmp eq i32 %1, 0
  br i1 %.not20, label %16, label %15

15:                                               ; preds = %Ga2_GlaGetFileName.exit
  tail call void (i32, ptr, ...) @Abc_Print(i32 poison, ptr noundef nonnull @.str.49, ptr noundef %.0.i)
  br label %16

16:                                               ; preds = %15, %Ga2_GlaGetFileName.exit
  %17 = load ptr, ptr %0, align 8
  %18 = getelementptr inbounds nuw i8, ptr %17, i64 448
  %19 = load ptr, ptr %18, align 8
  %20 = icmp eq ptr %19, null
  br i1 %20, label %Vec_IntFreeP.exit, label %21

21:                                               ; preds = %16
  %22 = getelementptr inbounds nuw i8, ptr %19, i64 8
  %23 = load ptr, ptr %22, align 8
  %.not.i21 = icmp eq ptr %23, null
  br i1 %.not.i21, label %.thread.i, label %24

24:                                               ; preds = %21
  tail call void @free(ptr noundef nonnull %23) #28
  %25 = load ptr, ptr %18, align 8
  %26 = getelementptr inbounds nuw i8, ptr %25, i64 8
  store ptr null, ptr %26, align 8
  %.pre.i = load ptr, ptr %18, align 8
  %.not9.i = icmp eq ptr %.pre.i, null
  br i1 %.not9.i, label %Vec_IntFreeP.exit, label %.thread.i

.thread.i:                                        ; preds = %24, %21
  %27 = phi ptr [ %.pre.i, %24 ], [ %19, %21 ]
  tail call void @free(ptr noundef nonnull %27) #28
  store ptr null, ptr %18, align 8
  br label %Vec_IntFreeP.exit

Vec_IntFreeP.exit:                                ; preds = %16, %24, %.thread.i
  %28 = tail call ptr @Ga2_ManAbsTranslate(ptr noundef nonnull %0)
  %29 = load ptr, ptr %0, align 8
  %30 = getelementptr inbounds nuw i8, ptr %29, i64 448
  store ptr %28, ptr %30, align 8
  %31 = load ptr, ptr %0, align 8
  tail call void @Gia_AigerWrite(ptr noundef %31, ptr noundef %.0.i, i32 noundef 0, i32 noundef 0, i32 noundef 0) #28
  br label %Vec_IntFreeP.exit31

32:                                               ; preds = %2
  %33 = getelementptr inbounds nuw i8, ptr %4, i64 84
  %34 = load i32, ptr %33, align 4
  %.not18 = icmp eq i32 %34, 0
  br i1 %.not18, label %Vec_IntFreeP.exit31, label %35

35:                                               ; preds = %32
  %36 = getelementptr inbounds nuw i8, ptr %4, i64 104
  %37 = load ptr, ptr %36, align 8
  %.not.i22 = icmp eq ptr %37, null
  br i1 %.not.i22, label %38, label %Ga2_GlaGetFileName.exit26

38:                                               ; preds = %35
  %39 = load ptr, ptr %0, align 8
  %40 = getelementptr inbounds nuw i8, ptr %39, i64 8
  %41 = load ptr, ptr %40, align 8
  %.not8.i24 = icmp eq ptr %41, null
  br i1 %.not8.i24, label %Ga2_GlaGetFileName.exit26, label %.sink.split.i25

.sink.split.i25:                                  ; preds = %38
  %42 = tail call ptr @Extra_FileNameGenericAppend(ptr noundef nonnull %41, ptr noundef nonnull @.str.47) #28
  br label %Ga2_GlaGetFileName.exit26

Ga2_GlaGetFileName.exit26:                        ; preds = %35, %38, %.sink.split.i25
  %.0.i23 = phi ptr [ %37, %35 ], [ @.str.46, %38 ], [ %42, %.sink.split.i25 ]
  %.not19 = icmp eq i32 %1, 0
  br i1 %.not19, label %44, label %43

43:                                               ; preds = %Ga2_GlaGetFileName.exit26
  tail call void (i32, ptr, ...) @Abc_Print(i32 poison, ptr noundef nonnull @.str.50, ptr noundef %.0.i23)
  br label %44

44:                                               ; preds = %43, %Ga2_GlaGetFileName.exit26
  %45 = tail call ptr @Ga2_ManAbsTranslate(ptr noundef nonnull %0)
  %46 = load ptr, ptr %0, align 8
  %47 = tail call ptr @Gia_ManDupAbsGates(ptr noundef %46, ptr noundef %45) #28
  %48 = load ptr, ptr %0, align 8
  tail call void @Gia_ManCleanValue(ptr noundef %48) #28
  tail call void @Gia_AigerWrite(ptr noundef %47, ptr noundef %.0.i23, i32 noundef 0, i32 noundef 0, i32 noundef 0) #28
  tail call void @Gia_ManStop(ptr noundef %47) #28
  %49 = icmp eq ptr %45, null
  br i1 %49, label %Vec_IntFreeP.exit31, label %50

50:                                               ; preds = %44
  %51 = getelementptr inbounds nuw i8, ptr %45, i64 8
  %52 = load ptr, ptr %51, align 8
  %.not.i27 = icmp eq ptr %52, null
  br i1 %.not.i27, label %.thread.i30, label %53

53:                                               ; preds = %50
  tail call void @free(ptr noundef nonnull %52) #28
  br label %.thread.i30

.thread.i30:                                      ; preds = %53, %50
  tail call void @free(ptr noundef nonnull %45) #28
  br label %Vec_IntFreeP.exit31

Vec_IntFreeP.exit31:                              ; preds = %.thread.i30, %44, %32, %Vec_IntFreeP.exit
  ret void
}